; Function Attrs: mustprogress nofree norecurse nosync nounwind willreturn memory(argmem: read) uwtable
define internal range(i32 0, 65536) i32 @vvc_v_loop_ladf_level_12(ptr noundef readonly captures(none) %0, i64 noundef %1) #10 {
  %3 = lshr i64 %1, 1
  %4 = getelementptr inbounds i8, ptr %0, i64 -2
  %5 = load i16, ptr %4, align 2, !tbaa !124
  %6 = zext i16 %5 to i32
  %.idx = mul i64 %3, 6
  %7 = getelementptr i8, ptr %0, i64 %.idx
  %8 = getelementptr i8, ptr %7, i64 -2
  %9 = load i16, ptr %8, align 2, !tbaa !124
  %10 = zext i16 %9 to i32
  %11 = add nuw nsw i32 %10, %6
  %12 = load i16, ptr %0, align 2, !tbaa !124
  %13 = zext i16 %12 to i32
  %14 = add nuw nsw i32 %11, %13
  %15 = load i16, ptr %7, align 2, !tbaa !124
  %16 = zext i16 %15 to i32
  %17 = add nuw nsw i32 %14, %16
  %18 = lshr i32 %17, 2
  ret i32 %18
}